; Function Attrs: mustprogress nofree norecurse nosync nounwind willreturn memory(write, argmem: readwrite, inaccessiblemem: none) uwtable
define hidden void @_ZN19OpenColorIO_v2_5dev21ExponentTransformImpl8setValueERA4_Kd(ptr noundef nonnull readonly align 8 captures(none) dereferenceable(280) %0, ptr noundef nonnull readonly align 8 captures(none) dereferenceable(32) %1) unnamed_addr #14 align 2 personality ptr @__gxx_personality_v0 {
  %3 = load double, ptr %1, align 8, !tbaa !58
  %4 = getelementptr inbounds nuw i8, ptr %0, i64 184
  %5 = load ptr, ptr %4, align 8, !tbaa !60
  store double %3, ptr %5, align 8, !tbaa !58
  %6 = getelementptr inbounds nuw i8, ptr %1, i64 8
  %7 = load double, ptr %6, align 8, !tbaa !58
  %8 = getelementptr inbounds nuw i8, ptr %0, i64 208
  %9 = load ptr, ptr %8, align 8, !tbaa !60
  store double %7, ptr %9, align 8, !tbaa !58
  %10 = getelementptr inbounds nuw i8, ptr %1, i64 16
  %11 = load double, ptr %10, align 8, !tbaa !58
  %12 = getelementptr inbounds nuw i8, ptr %0, i64 232
  %13 = load ptr, ptr %12, align 8, !tbaa !60
  store double %11, ptr %13, align 8, !tbaa !58
  %14 = getelementptr inbounds nuw i8, ptr %1, i64 24
  %15 = load double, ptr %14, align 8, !tbaa !58
  %16 = getelementptr inbounds nuw i8, ptr %0, i64 256
  %17 = load ptr, ptr %16, align 8, !tbaa !60
  store double %15, ptr %17, align 8, !tbaa !58
  ret void
}